target datalayout = "e-m:e-p270:32:32-p271:32:32-p272:64:64-i64:64-i128:128-f80:128-n8:16:32:64-S128"
target triple = "x86_64-pc-linux-gnu"

@.str.2 = private unnamed_addr constant [48 x i8] c"data too large to fit into virtual memory space\00", align 1
@.str.3 = private unnamed_addr constant [29 x i8] c"Out of memory, calloc failed\00", align 1
@memory_limit_check.limit = internal global i64 0, align 8
@.str.31 = private unnamed_addr constant [16 x i8] c"GIT_ALLOC_LIMIT\00", align 1
@.str.32 = private unnamed_addr constant [42 x i8] c"attempting to allocate %lu over limit %lu\00", align 1

; Function Attrs: inlinehint nounwind uwtable
define internal i32 @const_error() #8 {
  ret i32 -1
}

; Function Attrs: nounwind uwtable
define internal i32 @memory_limit_check(i64 noundef %0, i32 noundef %1) #0 {
  %3 = alloca i32, align 4
  %4 = alloca i64, align 8
  %5 = alloca i32, align 4
  store i64 %0, ptr %4, align 8, !tbaa !9
  store i32 %1, ptr %5, align 4, !tbaa !11
  %6 = load i64, ptr @memory_limit_check.limit, align 8, !tbaa !9
  %7 = icmp ne i64 %6, 0
  br i1 %7, label %14, label %8

8:                                                ; preds = %2
  %9 = call i64 @git_env_ulong(ptr noundef @.str.31, i64 noundef 0)
  store i64 %9, ptr @memory_limit_check.limit, align 8, !tbaa !9
  %10 = load i64, ptr @memory_limit_check.limit, align 8, !tbaa !9
  %11 = icmp ne i64 %10, 0
  br i1 %11, label %13, label %12

12:                                               ; preds = %8
  store i64 -1, ptr @memory_limit_check.limit, align 8, !tbaa !9
  br label %13

13:                                               ; preds = %12, %8
  br label %14

14:                                               ; preds = %13, %2
  %15 = load i64, ptr %4, align 8, !tbaa !9
  %16 = load i64, ptr @memory_limit_check.limit, align 8, !tbaa !9
  %17 = icmp ugt i64 %15, %16
  br i1 %17, label %18, label %29

18:                                               ; preds = %14
  %19 = load i32, ptr %5, align 4, !tbaa !11
  %20 = icmp ne i32 %19, 0
  br i1 %20, label %21, label %26

21:                                               ; preds = %18
  %22 = load i64, ptr %4, align 8, !tbaa !9
  %23 = load i64, ptr @memory_limit_check.limit, align 8, !tbaa !9
  %24 = call i32 (ptr, ...) @error(ptr noundef @.str.32, i64 noundef %22, i64 noundef %23)
  %25 = call i32 @const_error()
  store i32 -1, ptr %3, align 4
  br label %30

26:                                               ; preds = %18
  %27 = load i64, ptr %4, align 8, !tbaa !9
  %28 = load i64, ptr @memory_limit_check.limit, align 8, !tbaa !9
  call void (ptr, ...) @die(ptr noundef @.str.32, i64 noundef %27, i64 noundef %28) #14
  unreachable

29:                                               ; preds = %14
  store i32 0, ptr %3, align 4
  br label %30

30:                                               ; preds = %29, %21
  %31 = load i32, ptr %3, align 4
  ret i32 %31
}

; Function Attrs: nounwind uwtable
define dso_local ptr @xcalloc(i64 noundef %0, i64 noundef %1) #0 {
  %3 = alloca i64, align 8
  %4 = alloca i64, align 8
  %5 = alloca ptr, align 8
  store i64 %0, ptr %3, align 8, !tbaa !9
  store i64 %1, ptr %4, align 8, !tbaa !9
  call void @llvm.lifetime.start.p0(i64 8, ptr %5) #13
  %6 = load i64, ptr %3, align 8, !tbaa !9
  %7 = icmp ne i64 %6, 0
  br i1 %7, label %8, label %14

8:                                                ; preds = %2
  %9 = load i64, ptr %4, align 8, !tbaa !9
  %10 = load i64, ptr %3, align 8, !tbaa !9
  %11 = udiv i64 -1, %10
  %12 = icmp ugt i64 %9, %11
  br i1 %12, label %13, label %14

13:                                               ; preds = %8
  call void (ptr, ...) @die(ptr noundef @.str.2) #14
  unreachable

14:                                               ; preds = %8, %2
  %15 = load i64, ptr %4, align 8, !tbaa !9
  %16 = load i64, ptr %3, align 8, !tbaa !9
  %17 = mul i64 %15, %16
  %18 = call i32 @memory_limit_check(i64 noundef %17, i32 noundef 0)
  %19 = load i64, ptr %3, align 8, !tbaa !9
  %20 = load i64, ptr %4, align 8, !tbaa !9
  %21 = call noalias ptr @calloc(i64 noundef %19, i64 noundef %20) #18
  store ptr %21, ptr %5, align 8, !tbaa !13
  %22 = load ptr, ptr %5, align 8, !tbaa !13
  %23 = icmp ne ptr %22, null
  br i1 %23, label %32, label %24

24:                                               ; preds = %14
  %25 = load i64, ptr %3, align 8, !tbaa !9
  %26 = icmp ne i64 %25, 0
  br i1 %26, label %27, label %30

27:                                               ; preds = %24
  %28 = load i64, ptr %4, align 8, !tbaa !9
  %29 = icmp ne i64 %28, 0
  br i1 %29, label %32, label %30

30:                                               ; preds = %27, %24
  %31 = call noalias ptr @calloc(i64 noundef 1, i64 noundef 1) #18
  store ptr %31, ptr %5, align 8, !tbaa !13
  br label %32

32:                                               ; preds = %30, %27, %14
  %33 = load ptr, ptr %5, align 8, !tbaa !13
  %34 = icmp ne ptr %33, null
  br i1 %34, label %36, label %35

35:                                               ; preds = %32
  call void (ptr, ...) @die(ptr noundef @.str.3) #14
  unreachable

36:                                               ; preds = %32
  %37 = load ptr, ptr %5, align 8, !tbaa !13
  call void @llvm.lifetime.end.p0(i64 8, ptr %5) #13
  ret ptr %37
}