; Function Attrs: nounwind uwtable
define dso_local noalias noundef nonnull ptr @xcalloc(i64 noundef %0, i64 noundef %1) local_unnamed_addr #0 {
  %3 = icmp ne i64 %0, 0
  br i1 %3, label %4, label %6

4:                                                ; preds = %2
  %mul = tail call { i64, i1 } @llvm.umul.with.overflow.i64(i64 %0, i64 %1)
  %mul.ov = extractvalue { i64, i1 } %mul, 1
  br i1 %mul.ov, label %5, label %6

5:                                                ; preds = %4
  tail call void (ptr, ...) @die(ptr noundef nonnull @.str.2) #21
  unreachable

6:                                                ; preds = %4, %2
  %7 = mul i64 %1, %0
  %8 = load i64, ptr @memory_limit_check.limit, align 8, !tbaa !4
  %.not.i = icmp eq i64 %8, 0
  br i1 %.not.i, label %9, label %11

9:                                                ; preds = %6
  %10 = tail call i64 @git_env_ulong(ptr noundef nonnull @.str.31, i64 noundef 0) #20
  %.not7.i = icmp eq i64 %10, 0
  %spec.store.select.i = select i1 %.not7.i, i64 -1, i64 %10
  store i64 %spec.store.select.i, ptr @memory_limit_check.limit, align 8
  br label %11

11:                                               ; preds = %9, %6
  %12 = phi i64 [ %spec.store.select.i, %9 ], [ %8, %6 ]
  %13 = icmp ugt i64 %7, %12
  br i1 %13, label %14, label %memory_limit_check.exit

14:                                               ; preds = %11
  tail call void (ptr, ...) @die(ptr noundef nonnull @.str.32, i64 noundef %7, i64 noundef %12) #21
  unreachable

memory_limit_check.exit:                          ; preds = %11
  %15 = tail call noalias ptr @calloc(i64 noundef %0, i64 noundef %1) #25
  %.not = icmp eq ptr %15, null
  br i1 %.not, label %16, label %.thread17

16:                                               ; preds = %memory_limit_check.exit
  %17 = icmp ne i64 %1, 0
  %or.cond = and i1 %3, %17
  br i1 %or.cond, label %.thread, label %18

18:                                               ; preds = %16
  %19 = tail call noalias dereferenceable_or_null(1) ptr @calloc(i64 noundef 1, i64 noundef 1) #25
  %.not14 = icmp eq ptr %19, null
  br i1 %.not14, label %.thread, label %.thread17

.thread:                                          ; preds = %16, %18
  tail call void (ptr, ...) @die(ptr noundef nonnull @.str.3) #21
  unreachable

.thread17:                                        ; preds = %memory_limit_check.exit, %18
  %.020 = phi ptr [ %19, %18 ], [ %15, %memory_limit_check.exit ]
  ret ptr %.020
}